	.file	"simple.c"
	.text
.Ltext0:
	.globl	INSTRUMENT_ON
	.type	INSTRUMENT_ON, @function
INSTRUMENT_ON:
.LFB35:
	.file 1 "simple.c"
	.loc 1 16 0
	.cfi_startproc
	.loc 1 18 0
	movl	$1, temp(%rip)
	.loc 1 20 0
	movl	$0, %eax
	ret
	.cfi_endproc
.LFE35:
	.size	INSTRUMENT_ON, .-INSTRUMENT_ON
	.globl	INSTRUMENT_OFF
	.type	INSTRUMENT_OFF, @function
INSTRUMENT_OFF:
.LFB36:
	.loc 1 22 0
	.cfi_startproc
	.loc 1 24 0
	movl	$0, temp(%rip)
	.loc 1 26 0
	movl	$0, %eax
	ret
	.cfi_endproc
.LFE36:
	.size	INSTRUMENT_OFF, .-INSTRUMENT_OFF
	.globl	getNewVal
	.type	getNewVal, @function
getNewVal:
.LFB37:
	.loc 1 28 0
	.cfi_startproc
.LVL0:
	pushq	%rbx
.LCFI0:
	.cfi_def_cfa_offset 16
	.cfi_offset 3, -16
	movq	%rdi, %rbx
	.loc 1 29 0
	movq	(%rdi), %rdi
.LVL1:
	call	free
	.loc 1 30 0
	movq	$0, (%rbx)
	.loc 1 31 0
	movl	$4, %edi
	call	malloc
.LVL2:
	.loc 1 32 0
	movl	$1, (%rax)
	.loc 1 34 0
	popq	%rbx
.LCFI1:
	.cfi_def_cfa_offset 8
.LVL3:
	ret
	.cfi_endproc
.LFE37:
	.size	getNewVal, .-getNewVal
	.globl	updaterThread
	.type	updaterThread, @function
updaterThread:
.LFB38:
	.loc 1 36 0
	.cfi_startproc
.LVL4:
	pushq	%rbx
.LCFI2:
	.cfi_def_cfa_offset 16
	.cfi_offset 3, -16
	.loc 1 38 0
	movl	$0, %eax
	call	INSTRUMENT_ON
.LVL5:
	movl	$10, %ebx
.LVL6:
.L5:
.LBB4:
	.loc 1 42 0 discriminator 2
	movl	$lock, %edi
	call	pthread_mutex_lock
	.loc 1 43 0 discriminator 2
	movl	$shrdPtr, %edi
	call	getNewVal
.LVL7:
	.loc 1 44 0 discriminator 2
	movq	%rax, shrdPtr(%rip)
	.loc 1 45 0 discriminator 2
	movl	$lock, %edi
	call	pthread_mutex_unlock
.LVL8:
.LBE4:
	.loc 1 41 0 discriminator 2
	subl	$1, %ebx
	jne	.L5
	.loc 1 48 0
	movl	$0, %eax
	call	INSTRUMENT_OFF
	.loc 1 50 0
	popq	%rbx
.LCFI3:
	.cfi_def_cfa_offset 8
	ret
	.cfi_endproc
.LFE38:
	.size	updaterThread, .-updaterThread
	.globl	swizzle
	.type	swizzle, @function
swizzle:
.LFB39:
	.loc 1 52 0
	.cfi_startproc
.LVL9:
	pushq	%rbx
.LCFI4:
	.cfi_def_cfa_offset 16
	.cfi_offset 3, -16
	movq	%rdi, %rbx
	.loc 1 54 0
	movl	$lock, %edi
.LVL10:
	call	pthread_mutex_lock
	.loc 1 55 0
	movq	shrdPtr(%rip), %rax
	testq	%rax, %rax
	je	.L8
	.loc 1 58 0
	movl	(%rax), %eax
	addl	%eax, (%rbx)
.L8:
	.loc 1 61 0
	movl	$lock, %edi
	call	pthread_mutex_unlock
	.loc 1 63 0
	popq	%rbx
.LCFI5:
	.cfi_def_cfa_offset 8
.LVL11:
	ret
	.cfi_endproc
.LFE39:
	.size	swizzle, .-swizzle
	.globl	accessorThread
	.type	accessorThread, @function
accessorThread:
.LFB40:
	.loc 1 65 0
	.cfi_startproc
.LVL12:
	pushq	%rbp
.LCFI6:
	.cfi_def_cfa_offset 16
	.cfi_offset 6, -16
	pushq	%rbx
.LCFI7:
	.cfi_def_cfa_offset 24
	.cfi_offset 3, -24
	subq	$8, %rsp
.LCFI8:
	.cfi_def_cfa_offset 32
	.loc 1 67 0
	movl	$4, %edi
.LVL13:
	call	malloc
	movq	%rax, %rbx
.LVL14:
	.loc 1 68 0
	movl	$0, (%rax)
	.loc 1 70 0
	movl	$0, %eax
.LVL15:
	call	INSTRUMENT_ON
	.loc 1 72 0
	cmpl	$99, (%rbx)
	jg	.L10
.LBB5:
	.loc 1 74 0
	movl	$1374389535, %ebp
.L12:
	.loc 1 73 0
	movq	%rbx, %rdi
	call	swizzle
	.loc 1 74 0
	call	rand
	movl	%eax, %edi
	imull	%ebp
	sarl	$5, %edx
	movl	%edi, %eax
	sarl	$31, %eax
	subl	%eax, %edx
	imull	$100, %edx, %edx
	subl	%edx, %edi
	addl	$10, %edi
	movl	$0, %eax
	call	usleep
.LBE5:
	.loc 1 72 0
	cmpl	$99, (%rbx)
	jle	.L12
.L10:
	.loc 1 77 0
	movl	$0, %eax
	call	INSTRUMENT_OFF
	.loc 1 79 0
	movq	%rbx, %rdi
	call	pthread_exit
	.cfi_endproc
.LFE40:
	.size	accessorThread, .-accessorThread
	.section	.rodata.str1.1,"aMS",@progbits,1
.LC0:
	.string	"Final value of res was %d\n"
	.text
	.globl	main
	.type	main, @function
main:
.LFB41:
	.loc 1 82 0
	.cfi_startproc
.LVL16:
	subq	$56, %rsp
.LCFI9:
	.cfi_def_cfa_offset 64
	.loc 1 84 0
	movl	$0, 44(%rsp)
.LVL17:
	.loc 1 85 0
	movl	$4, %edi
.LVL18:
	call	malloc
.LVL19:
	movq	%rax, shrdPtr(%rip)
	.loc 1 86 0
	movl	$1, (%rax)
	.loc 1 88 0
	movl	$0, %esi
	movl	$lock, %edi
	call	pthread_mutex_init
	.loc 1 91 0
	movq	shrdPtr(%rip), %rcx
	movl	$accessorThread, %edx
	movl	$0, %esi
	movq	%rsp, %rdi
	call	pthread_create
	.loc 1 92 0
	leaq	8(%rsp), %rdi
	movq	shrdPtr(%rip), %rcx
	movl	$accessorThread, %edx
	movl	$0, %esi
	call	pthread_create
	.loc 1 93 0
	leaq	16(%rsp), %rdi
	movq	shrdPtr(%rip), %rcx
	movl	$accessorThread, %edx
	movl	$0, %esi
	call	pthread_create
	.loc 1 94 0
	leaq	24(%rsp), %rdi
	movq	shrdPtr(%rip), %rcx
	movl	$accessorThread, %edx
	movl	$0, %esi
	call	pthread_create
	.loc 1 95 0
	movq	shrdPtr(%rip), %rcx
	movl	$updaterThread, %edx
	movl	$0, %esi
	leaq	32(%rsp), %rdi
	call	pthread_create
	.loc 1 97 0
	movl	$0, %esi
.LVL20:
	movq	32(%rsp), %rdi
	call	pthread_join
	.loc 1 98 0
	leaq	44(%rsp), %rsi
	movq	(%rsp), %rdi
	call	pthread_join
	.loc 1 99 0
	leaq	44(%rsp), %rsi
	movq	8(%rsp), %rdi
	call	pthread_join
	.loc 1 100 0
	leaq	44(%rsp), %rsi
	movq	16(%rsp), %rdi
	call	pthread_join
	.loc 1 101 0
	leaq	44(%rsp), %rsi
	movq	24(%rsp), %rdi
	call	pthread_join
.LVL21:
.LBB6:
.LBB7:
	.file 2 "/usr/include/x86_64-linux-gnu/bits/stdio2.h"
	.loc 2 98 0
	movl	44(%rsp), %ecx
	movl	$.LC0, %edx
	movl	$1, %esi
	movq	stderr(%rip), %rdi
	movl	$0, %eax
	call	__fprintf_chk
.LVL22:
.LBE7:
.LBE6:
	.loc 1 103 0
	addq	$56, %rsp
.LCFI10:
	.cfi_def_cfa_offset 8
	ret
	.cfi_endproc
.LFE41:
	.size	main, .-main
	.comm	temp,4,4
	.comm	lock,40,32
	.comm	shrdPtr,8,8
.Letext0:
	.file 3 "/usr/lib/gcc/x86_64-linux-gnu/4.6.1/include/stddef.h"
	.file 4 "/usr/include/x86_64-linux-gnu/bits/types.h"
	.file 5 "/usr/include/stdio.h"
	.file 6 "/usr/include/libio.h"
	.file 7 "/usr/include/x86_64-linux-gnu/bits/pthreadtypes.h"
	.section	.note.GNU-stack,"",@progbits
